; Function Attrs: mustprogress nofree nounwind willreturn memory(read) uwtable
define internal fastcc noundef zeroext i1 @"_ZZL15CanGenerateTestPN4llvm4LoopEPNS_5ValueEENK3$_0clEPNS_8ICmpInstES3_j"(ptr nocapture noundef readonly %0, ptr noundef readnone %1, i32 noundef %2) unnamed_addr #8 align 2 {
  %4 = getelementptr inbounds i8, ptr %0, i64 -64
  %5 = zext i32 %2 to i64
  %6 = getelementptr inbounds %"class.llvm::Use", ptr %4, i64 %5
  %7 = load ptr, ptr %6, align 8
  %8 = load i8, ptr %7, align 8
  %.not = icmp eq i8 %8, 17
  br i1 %.not, label %9, label %25

9:                                                ; preds = %3
  %10 = getelementptr inbounds nuw i8, ptr %7, i64 24
  %11 = getelementptr inbounds i8, ptr %7, i64 32
  %12 = load i32, ptr %11, align 8
  %13 = icmp ult i32 %12, 65
  br i1 %13, label %14, label %_ZNK4llvm11ConstantInt6isZeroEv.exit

14:                                               ; preds = %9
  %15 = load i64, ptr %10, align 8
  %16 = icmp eq i64 %15, 0
  br i1 %16, label %19, label %25

_ZNK4llvm11ConstantInt6isZeroEv.exit:             ; preds = %9
  %17 = tail call noundef i32 @_ZNK4llvm5APInt25countLeadingZerosSlowCaseEv(ptr noundef nonnull align 8 dereferenceable(12) %10) #19
  %18 = icmp eq i32 %17, %12
  br i1 %18, label %19, label %25

19:                                               ; preds = %14, %_ZNK4llvm11ConstantInt6isZeroEv.exit
  %20 = xor i32 %2, 1
  %21 = zext i32 %20 to i64
  %22 = getelementptr inbounds %"class.llvm::Use", ptr %4, i64 %21
  %23 = load ptr, ptr %22, align 8
  %24 = icmp eq ptr %23, %1
  br label %25

25:                                               ; preds = %14, %3, %_ZNK4llvm11ConstantInt6isZeroEv.exit, %19
  %.0 = phi i1 [ false, %_ZNK4llvm11ConstantInt6isZeroEv.exit ], [ %24, %19 ], [ false, %3 ], [ false, %14 ]
  ret i1 %.0
}